target datalayout = "e-m:e-p270:32:32-p271:32:32-p272:64:64-i64:64-i128:128-f80:128-n8:16:32:64-S128"
target triple = "x86_64-pc-linux-gnu"

%struct.AVChannelLayout = type { i32, i32, %union.anon.1, ptr }
%union.anon.1 = type { i64 }
%struct.AVFilterContext = type { ptr, ptr, ptr, ptr, ptr, i32, ptr, ptr, i32, ptr, ptr, i32, i32, ptr, ptr, ptr, ptr, i32, ptr, i32, i32 }
%struct.AudioPhaseMeterContext = type { ptr, ptr, ptr, i64, i32, i32, i32, i32, %struct.AVRational, [4 x i32], ptr, [4 x i8], i32, i32, i32, i32, i32, i32, float, float, float, %struct.AVRational, i64, i64, [2 x i64], [2 x i64] }
%struct.AVRational = type { i32, i32 }
%struct.AVFilterFormatsConfig = type { ptr, ptr, ptr, ptr, ptr }
%struct.AVFilterLink = type { ptr, ptr, ptr, ptr, i32, i32, i32, i32, %struct.AVRational, i32, i32, i32, %struct.AVChannelLayout, %struct.AVRational, ptr, i32, %struct.AVFilterFormatsConfig, %struct.AVFilterFormatsConfig }
%struct.FilterLink = type { %struct.AVFilterLink, ptr, i64, i64, i32, i32, i64, i64, i64, i64, %struct.AVRational, ptr }

@.str.20 = private unnamed_addr constant [5 x i8] c"none\00", align 1

; Function Attrs: alwaysinline nounwind uwtable
define internal i64 @av_inv_q(i64 %0) #8 {
  %2 = alloca %struct.AVRational, align 4
  %3 = alloca %struct.AVRational, align 4
  store i64 %0, ptr %3, align 4
  %4 = getelementptr inbounds nuw %struct.AVRational, ptr %2, i32 0, i32 0
  %5 = getelementptr inbounds nuw %struct.AVRational, ptr %3, i32 0, i32 1
  %6 = load i32, ptr %5, align 4, !tbaa !78
  store i32 %6, ptr %4, align 4, !tbaa !77
  %7 = getelementptr inbounds nuw %struct.AVRational, ptr %2, i32 0, i32 1
  %8 = getelementptr inbounds nuw %struct.AVRational, ptr %3, i32 0, i32 0
  %9 = load i32, ptr %8, align 4, !tbaa !77
  store i32 %9, ptr %7, align 4, !tbaa !78
  %10 = load i64, ptr %2, align 4
  ret i64 %10
}

; Function Attrs: inlinehint nounwind uwtable
define internal ptr @ff_filter_link(ptr noundef %0) #7 {
  %2 = alloca ptr, align 8
  store ptr %0, ptr %2, align 8, !tbaa !50
  %3 = load ptr, ptr %2, align 8, !tbaa !50
  ret ptr %3
}

; Function Attrs: nounwind uwtable
define internal i32 @config_video_output(ptr noundef %0) #1 {
  %2 = alloca i32, align 4
  %3 = alloca ptr, align 8
  %4 = alloca ptr, align 8
  %5 = alloca ptr, align 8
  %6 = alloca ptr, align 8
  %7 = alloca %struct.AVRational, align 4
  %8 = alloca %struct.AVRational, align 4
  %9 = alloca i32, align 4
  store ptr %0, ptr %3, align 8, !tbaa !50
  call void @llvm.lifetime.start.p0(i64 8, ptr %4) #12
  %10 = load ptr, ptr %3, align 8, !tbaa !50
  %11 = getelementptr inbounds nuw %struct.AVFilterLink, ptr %10, i32 0, i32 0
  %12 = load ptr, ptr %11, align 8, !tbaa !69
  store ptr %12, ptr %4, align 8, !tbaa !4
  call void @llvm.lifetime.start.p0(i64 8, ptr %5) #12
  %13 = load ptr, ptr %4, align 8, !tbaa !4
  %14 = getelementptr inbounds nuw %struct.AVFilterContext, ptr %13, i32 0, i32 9
  %15 = load ptr, ptr %14, align 8, !tbaa !9
  store ptr %15, ptr %5, align 8, !tbaa !22
  call void @llvm.lifetime.start.p0(i64 8, ptr %6) #12
  %16 = load ptr, ptr %3, align 8, !tbaa !50
  %17 = call ptr @ff_filter_link(ptr noundef %16)
  store ptr %17, ptr %6, align 8, !tbaa !70
  %18 = load ptr, ptr %5, align 8, !tbaa !22
  %19 = getelementptr inbounds nuw %struct.AudioPhaseMeterContext, ptr %18, i32 0, i32 3
  store i64 -9223372036854775808, ptr %19, align 8, !tbaa !72
  %20 = load ptr, ptr %5, align 8, !tbaa !22
  %21 = getelementptr inbounds nuw %struct.AudioPhaseMeterContext, ptr %20, i32 0, i32 6
  %22 = load i32, ptr %21, align 8, !tbaa !73
  %23 = load ptr, ptr %3, align 8, !tbaa !50
  %24 = getelementptr inbounds nuw %struct.AVFilterLink, ptr %23, i32 0, i32 6
  store i32 %22, ptr %24, align 8, !tbaa !74
  %25 = load ptr, ptr %5, align 8, !tbaa !22
  %26 = getelementptr inbounds nuw %struct.AudioPhaseMeterContext, ptr %25, i32 0, i32 7
  %27 = load i32, ptr %26, align 4, !tbaa !75
  %28 = load ptr, ptr %3, align 8, !tbaa !50
  %29 = getelementptr inbounds nuw %struct.AVFilterLink, ptr %28, i32 0, i32 7
  store i32 %27, ptr %29, align 4, !tbaa !76
  %30 = load ptr, ptr %3, align 8, !tbaa !50
  %31 = getelementptr inbounds nuw %struct.AVFilterLink, ptr %30, i32 0, i32 8
  %32 = getelementptr inbounds nuw %struct.AVRational, ptr %7, i32 0, i32 0
  store i32 1, ptr %32, align 4, !tbaa !77
  %33 = getelementptr inbounds nuw %struct.AVRational, ptr %7, i32 0, i32 1
  store i32 1, ptr %33, align 4, !tbaa !78
  call void @llvm.memcpy.p0.p0.i64(ptr align 8 %31, ptr align 4 %7, i64 8, i1 false), !tbaa.struct !79
  %34 = load ptr, ptr %6, align 8, !tbaa !70
  %35 = getelementptr inbounds nuw %struct.FilterLink, ptr %34, i32 0, i32 10
  %36 = load ptr, ptr %5, align 8, !tbaa !22
  %37 = getelementptr inbounds nuw %struct.AudioPhaseMeterContext, ptr %36, i32 0, i32 8
  call void @llvm.memcpy.p0.p0.i64(ptr align 8 %35, ptr align 8 %37, i64 8, i1 false), !tbaa.struct !79
  %38 = load ptr, ptr %3, align 8, !tbaa !50
  %39 = getelementptr inbounds nuw %struct.AVFilterLink, ptr %38, i32 0, i32 13
  call void @llvm.lifetime.start.p0(i64 8, ptr %8) #12
  %40 = load ptr, ptr %6, align 8, !tbaa !70
  %41 = getelementptr inbounds nuw %struct.FilterLink, ptr %40, i32 0, i32 10
  %42 = load i64, ptr %41, align 8
  %43 = call i64 @av_inv_q(i64 %42)
  store i64 %43, ptr %8, align 4
  call void @llvm.memcpy.p0.p0.i64(ptr align 8 %39, ptr align 4 %8, i64 8, i1 false), !tbaa.struct !79
  call void @llvm.lifetime.end.p0(i64 8, ptr %8) #12
  %44 = load ptr, ptr %5, align 8, !tbaa !22
  %45 = getelementptr inbounds nuw %struct.AudioPhaseMeterContext, ptr %44, i32 0, i32 10
  %46 = load ptr, ptr %45, align 8, !tbaa !80
  %47 = call i32 @strcmp(ptr noundef %46, ptr noundef @.str.20) #14
  %48 = icmp ne i32 %47, 0
  br i1 %48, label %52, label %49

49:                                               ; preds = %1
  %50 = load ptr, ptr %5, align 8, !tbaa !22
  %51 = getelementptr inbounds nuw %struct.AudioPhaseMeterContext, ptr %50, i32 0, i32 12
  store i32 0, ptr %51, align 4, !tbaa !81
  br label %67

52:                                               ; preds = %1
  %53 = load ptr, ptr %5, align 8, !tbaa !22
  %54 = getelementptr inbounds nuw %struct.AudioPhaseMeterContext, ptr %53, i32 0, i32 11
  %55 = getelementptr inbounds [4 x i8], ptr %54, i64 0, i64 0
  %56 = load ptr, ptr %5, align 8, !tbaa !22
  %57 = getelementptr inbounds nuw %struct.AudioPhaseMeterContext, ptr %56, i32 0, i32 10
  %58 = load ptr, ptr %57, align 8, !tbaa !80
  %59 = load ptr, ptr %4, align 8, !tbaa !4
  %60 = call i32 @av_parse_color(ptr noundef %55, ptr noundef %58, i32 noundef -1, ptr noundef %59)
  %61 = icmp sge i32 %60, 0
  br i1 %61, label %62, label %65

62:                                               ; preds = %52
  %63 = load ptr, ptr %5, align 8, !tbaa !22
  %64 = getelementptr inbounds nuw %struct.AudioPhaseMeterContext, ptr %63, i32 0, i32 12
  store i32 1, ptr %64, align 4, !tbaa !81
  br label %66

65:                                               ; preds = %52
  store i32 -22, ptr %2, align 4
  store i32 1, ptr %9, align 4
  br label %68

66:                                               ; preds = %62
  br label %67

67:                                               ; preds = %66, %49
  store i32 0, ptr %2, align 4
  store i32 1, ptr %9, align 4
  br label %68

68:                                               ; preds = %67, %65
  call void @llvm.lifetime.end.p0(i64 8, ptr %6) #12
  call void @llvm.lifetime.end.p0(i64 8, ptr %5) #12
  call void @llvm.lifetime.end.p0(i64 8, ptr %4) #12
  %69 = load i32, ptr %2, align 4
  ret i32 %69
}