; Function Attrs: nounwind uwtable
define internal range(i32 -22, 1) i32 @config_video_output(ptr noundef captures(none) initializes((40, 56), (96, 104), (264, 272)) %0) #1 {
  %2 = load ptr, ptr %0, align 8, !tbaa !86
  %3 = getelementptr inbounds nuw i8, ptr %2, i64 72
  %4 = load ptr, ptr %3, align 8, !tbaa !4
  %5 = getelementptr inbounds nuw i8, ptr %4, i64 24
  store i64 -9223372036854775808, ptr %5, align 8, !tbaa !79
  %6 = getelementptr inbounds nuw i8, ptr %4, i64 40
  %7 = load i32, ptr %6, align 8, !tbaa !71
  %8 = getelementptr inbounds nuw i8, ptr %0, i64 40
  store i32 %7, ptr %8, align 8, !tbaa !59
  %9 = getelementptr inbounds nuw i8, ptr %4, i64 44
  %10 = load i32, ptr %9, align 4, !tbaa !87
  %11 = getelementptr inbounds nuw i8, ptr %0, i64 44
  store i32 %10, ptr %11, align 4, !tbaa !61
  %12 = getelementptr inbounds nuw i8, ptr %0, i64 48
  store i32 1, ptr %12, align 8, !tbaa !21
  %.sroa.2.0..sroa_idx = getelementptr inbounds nuw i8, ptr %0, i64 52
  store i32 1, ptr %.sroa.2.0..sroa_idx, align 4, !tbaa !21
  %13 = getelementptr inbounds nuw i8, ptr %0, i64 264
  %14 = getelementptr inbounds nuw i8, ptr %4, i64 48
  %15 = load i64, ptr %14, align 8
  store i64 %15, ptr %13, align 8
  %16 = getelementptr inbounds nuw i8, ptr %0, i64 96
  %.sroa.01.0.insert.insert.i = tail call i64 @llvm.fshl.i64(i64 %15, i64 %15, i64 32)
  store i64 %.sroa.01.0.insert.insert.i, ptr %16, align 8
  %17 = getelementptr inbounds nuw i8, ptr %4, i64 72
  %18 = load ptr, ptr %17, align 8, !tbaa !88
  %19 = tail call i32 @strcmp(ptr noundef nonnull dereferenceable(1) %18, ptr noundef nonnull dereferenceable(5) @.str.20) #15
  %.not = icmp eq i32 %19, 0
  br i1 %.not, label %.sink.split, label %20

20:                                               ; preds = %1
  %21 = getelementptr inbounds nuw i8, ptr %4, i64 80
  %22 = tail call i32 @av_parse_color(ptr noundef nonnull %21, ptr noundef nonnull %18, i32 noundef -1, ptr noundef nonnull %2) #13
  %23 = icmp sgt i32 %22, -1
  br i1 %23, label %.sink.split, label %25

.sink.split:                                      ; preds = %20, %1
  %.sink = phi i32 [ 0, %1 ], [ 1, %20 ]
  %24 = getelementptr inbounds nuw i8, ptr %4, i64 84
  store i32 %.sink, ptr %24, align 4, !tbaa !74
  br label %25

25:                                               ; preds = %.sink.split, %20
  %.0 = phi i32 [ -22, %20 ], [ 0, %.sink.split ]
  ret i32 %.0
}